target datalayout = "e-m:e-p270:32:32-p271:32:32-p272:64:64-i64:64-i128:128-f80:128-n8:16:32:64-S128"
target triple = "x86_64-pc-linux-gnu"

; Function Attrs: nounwind uwtable
define internal void @highbd_smooth_v_predictor(ptr noundef %0, i64 noundef %1, i32 noundef %2, i32 noundef %3, ptr noundef %4, ptr noundef %5, i32 noundef %6) #0 {
  %8 = alloca ptr, align 8
  %9 = alloca i64, align 8
  %10 = alloca i32, align 4
  %11 = alloca i32, align 4
  %12 = alloca ptr, align 8
  %13 = alloca ptr, align 8
  %14 = alloca i32, align 4
  %15 = alloca i16, align 2
  %16 = alloca ptr, align 8
  %17 = alloca i32, align 4
  %18 = alloca i16, align 2
  %19 = alloca i32, align 4
  %20 = alloca i32, align 4
  %21 = alloca [2 x i16], align 2
  %22 = alloca [2 x i8], align 1
  %23 = alloca i32, align 4
  %24 = alloca i32, align 4
  store ptr %0, ptr %8, align 8
  store i64 %1, ptr %9, align 8
  store i32 %2, ptr %10, align 4
  store i32 %3, ptr %11, align 4
  store ptr %4, ptr %12, align 8
  store ptr %5, ptr %13, align 8
  store i32 %6, ptr %14, align 4
  %25 = load ptr, ptr %13, align 8
  %26 = load i32, ptr %11, align 4
  %27 = sub nsw i32 %26, 1
  %28 = sext i32 %27 to i64
  %29 = getelementptr inbounds i16, ptr %25, i64 %28
  %30 = load i16, ptr %29, align 2
  store i16 %30, ptr %15, align 2
  %31 = load i32, ptr %11, align 4
  %32 = sext i32 %31 to i64
  %33 = getelementptr inbounds i8, ptr @sm_weight_arrays, i64 %32
  store ptr %33, ptr %16, align 8
  store i32 8, ptr %17, align 4
  store i16 256, ptr %18, align 2
  store i32 0, ptr %19, align 4
  br label %34

34:                                               ; preds = %101, %7
  %35 = load i32, ptr %19, align 4
  %36 = load i32, ptr %11, align 4
  %37 = icmp slt i32 %35, %36
  br i1 %37, label %38, label %104

38:                                               ; preds = %34
  store i32 0, ptr %20, align 4
  br label %39

39:                                               ; preds = %94, %38
  %40 = load i32, ptr %20, align 4
  %41 = load i32, ptr %10, align 4
  %42 = icmp slt i32 %40, %41
  br i1 %42, label %43, label %97

43:                                               ; preds = %39
  %44 = load ptr, ptr %12, align 8
  %45 = load i32, ptr %20, align 4
  %46 = sext i32 %45 to i64
  %47 = getelementptr inbounds i16, ptr %44, i64 %46
  %48 = load i16, ptr %47, align 2
  store i16 %48, ptr %21, align 2
  %49 = getelementptr inbounds i16, ptr %21, i64 1
  %50 = load i16, ptr %15, align 2
  store i16 %50, ptr %49, align 2
  %51 = load ptr, ptr %16, align 8
  %52 = load i32, ptr %19, align 4
  %53 = sext i32 %52 to i64
  %54 = getelementptr inbounds i8, ptr %51, i64 %53
  %55 = load i8, ptr %54, align 1
  store i8 %55, ptr %22, align 1
  %56 = getelementptr inbounds i8, ptr %22, i64 1
  %57 = load ptr, ptr %16, align 8
  %58 = load i32, ptr %19, align 4
  %59 = sext i32 %58 to i64
  %60 = getelementptr inbounds i8, ptr %57, i64 %59
  %61 = load i8, ptr %60, align 1
  %62 = zext i8 %61 to i32
  %63 = sub nsw i32 256, %62
  %64 = trunc i32 %63 to i8
  store i8 %64, ptr %56, align 1
  store i32 0, ptr %23, align 4
  store i32 0, ptr %24, align 4
  br label %65

65:                                               ; preds = %82, %43
  %66 = load i32, ptr %24, align 4
  %67 = icmp slt i32 %66, 2
  br i1 %67, label %68, label %85

68:                                               ; preds = %65
  %69 = load i32, ptr %24, align 4
  %70 = sext i32 %69 to i64
  %71 = getelementptr inbounds [2 x i8], ptr %22, i64 0, i64 %70
  %72 = load i8, ptr %71, align 1
  %73 = zext i8 %72 to i32
  %74 = load i32, ptr %24, align 4
  %75 = sext i32 %74 to i64
  %76 = getelementptr inbounds [2 x i16], ptr %21, i64 0, i64 %75
  %77 = load i16, ptr %76, align 2
  %78 = zext i16 %77 to i32
  %79 = mul nsw i32 %73, %78
  %80 = load i32, ptr %23, align 4
  %81 = add i32 %80, %79
  store i32 %81, ptr %23, align 4
  br label %82

82:                                               ; preds = %68
  %83 = load i32, ptr %24, align 4
  %84 = add nsw i32 %83, 1
  store i32 %84, ptr %24, align 4
  br label %65, !llvm.loop !24

85:                                               ; preds = %65
  %86 = load i32, ptr %23, align 4
  %87 = add i32 %86, 128
  %88 = lshr i32 %87, 8
  %89 = trunc i32 %88 to i16
  %90 = load ptr, ptr %8, align 8
  %91 = load i32, ptr %20, align 4
  %92 = sext i32 %91 to i64
  %93 = getelementptr inbounds i16, ptr %90, i64 %92
  store i16 %89, ptr %93, align 2
  br label %94

94:                                               ; preds = %85
  %95 = load i32, ptr %20, align 4
  %96 = add nsw i32 %95, 1
  store i32 %96, ptr %20, align 4
  br label %39, !llvm.loop !25

97:                                               ; preds = %39
  %98 = load i64, ptr %9, align 8
  %99 = load ptr, ptr %8, align 8
  %100 = getelementptr inbounds i16, ptr %99, i64 %98
  store ptr %100, ptr %8, align 8
  br label %101

101:                                              ; preds = %97
  %102 = load i32, ptr %19, align 4
  %103 = add nsw i32 %102, 1
  store i32 %103, ptr %19, align 4
  br label %34, !llvm.loop !26

104:                                              ; preds = %34
  ret void
}

; Function Attrs: nounwind uwtable
define hidden void @aom_highbd_smooth_v_predictor_32x16_c(ptr noundef %0, i64 noundef %1, ptr noundef %2, ptr noundef %3, i32 noundef %4) #0 {
  %6 = alloca ptr, align 8
  %7 = alloca i64, align 8
  %8 = alloca ptr, align 8
  %9 = alloca ptr, align 8
  %10 = alloca i32, align 4
  store ptr %0, ptr %6, align 8
  store i64 %1, ptr %7, align 8
  store ptr %2, ptr %8, align 8
  store ptr %3, ptr %9, align 8
  store i32 %4, ptr %10, align 4
  %11 = load ptr, ptr %6, align 8
  %12 = load i64, ptr %7, align 8
  %13 = load ptr, ptr %8, align 8
  %14 = load ptr, ptr %9, align 8
  %15 = load i32, ptr %10, align 4
  call void @highbd_smooth_v_predictor(ptr noundef %11, i64 noundef %12, i32 noundef 32, i32 noundef 16, ptr noundef %13, ptr noundef %14, i32 noundef %15)
  ret void
}